; Function Attrs: nounwind uwtable
define dso_local i32 @uv_tcp_open(ptr noundef %0, i32 noundef %1) local_unnamed_addr #0 {
  %3 = getelementptr inbounds nuw i8, ptr %0, i64 8
  %4 = load ptr, ptr %3, align 8
  %5 = tail call i32 @uv__fd_exists(ptr noundef %4, i32 noundef %1) #7
  %.not = icmp eq i32 %5, 0
  br i1 %.not, label %6, label %10

6:                                                ; preds = %2
  %7 = tail call i32 @uv__nonblock_ioctl(i32 noundef %1, i32 noundef 1) #7
  %.not8 = icmp eq i32 %7, 0
  br i1 %.not8, label %8, label %10

8:                                                ; preds = %6
  %9 = tail call i32 @uv__stream_open(ptr noundef nonnull %0, i32 noundef %1, i32 noundef 49152) #7
  br label %10

10:                                               ; preds = %6, %2, %8
  %.0 = phi i32 [ %9, %8 ], [ -17, %2 ], [ %7, %6 ]
  ret i32 %.0
}